ccopy_reg
_reconstructor
p0
(cargparse
Namespace
p1
c__builtin__
object
p2
Ntp3
Rp4
(dp5
S'load'
p6
I01
sS'render'
p7
I01
sS'prevActionsSize'
p8
I1
sS'player'
p9
S'cnn'
p10
sS'ckpt'
p11
I14000
sS'maxGameIter'
p12
I3000
sS'regularization'
p13
F0.001
sS'isTrain'
p14
I01
sS'batchSize'
p15
I20
sS'maxCache'
p16
I1000
sS'death_penalty'
p17
I-100
sS'decay_rate'
p18
I1
sS'lr'
p19
F0.0001
sS'model_dir'
p20
S'model/20171204_201802/'
p21
sS'batchPerFeedback'
p22
I10
sS'explorationProb'
p23
F0.5
sS'updateTargetInterval'
p24
I20
sS'optimizer'
p25
S'adam'
p26
sS'decay_step'
p27
I1000
sS'updateInterval'
p28
I10
sS'gradient_clip'
p29
I10
sS'tileWindowSize'
p30
I3
sS'windowsize'
p31
I3
sS'softmaxExploration'
p32
I01
sS'stepCounterMax'
p33
I6
sS'save_period'
p34
I2000
sb.