(lp0
((lp1
S'Right'
p2
aS'A'
p3
aI5
tp4
a((lp5
g2
ag3
aI3
tp6
a((lp7
g2
aS'B'
p8
aI2
tp9
a((lp10
g2
ag3
aI1
tp11
a((lp12
g2
ag3
ag8
aI2
tp13
a((lp14
S'Left'
p15
ag3
aI3
tp16
a((lp17
g15
ag8
aI3
tp18
a((lp19
S'NO_ACTION'
p20
aI1
tp21
a.