ccopy_reg
_reconstructor
p0
(cargparse
Namespace
p1
c__builtin__
object
p2
Ntp3
Rp4
(dp5
S'render'
p6
I01
sS'prevActionsSize'
p7
I10
sS'player'
p8
S'manual'
p9
sS'ckpt'
p10
I0
sS'maxGameIter'
p11
I10000
sS'regularization'
p12
F0.001
sS'isTrain'
p13
I01
sS'batchSize'
p14
I20
sS'maxCache'
p15
I1000
sS'death_penalty'
p16
I-100
sS'decay_rate'
p17
I1
sS'lr'
p18
F0.0001
sS'model_dir'
p19
S'model/20171204_041926'
p20
sS'batchPerFeedback'
p21
I10
sS'explorationProb'
p22
F0.5
sS'updateTargetInterval'
p23
I20
sS'optimizer'
p24
S'adam'
p25
sS'decay_step'
p26
I1000
sS'updateInterval'
p27
I10
sS'gradient_clip'
p28
I10
sS'tileWindowSize'
p29
I3
sS'windowsize'
p30
I3
sS'softmaxExploration'
p31
I01
sS'stepCounterMax'
p32
I5
sS'save_period'
p33
I2000
sb.