(lp0
ccopy_reg
_reconstructor
p1
(cbot.util
GameAction
p2
c__builtin__
object
p3
Ntp4
Rp5
(dp6
S'name'
p7
S'NO_ACTION-1'
p8
sS'actions'
p9
(lp10
(lp11
S'NO_ACTION'
p12
aasbag1
(g2
g3
Ntp13
Rp14
(dp15
g7
S'Right-A-3'
p16
sg9
(lp17
(lp18
S'Right'
p19
aS'A'
p20
aag18
ag18
asbag1
(g2
g3
Ntp21
Rp22
(dp23
g7
S'Right-A-1'
p24
sg9
(lp25
(lp26
g19
ag20
aasbag1
(g2
g3
Ntp27
Rp28
(dp29
g7
S'Right-B-3'
p30
sg9
(lp31
(lp32
g19
aS'B'
p33
aag32
ag32
asbag1
(g2
g3
Ntp34
Rp35
(dp36
g7
S'Right-B-1'
p37
sg9
(lp38
(lp39
g19
ag33
aasbag1
(g2
g3
Ntp40
Rp41
(dp42
g7
S'Right-A-B-6'
p43
sg9
(lp44
(lp45
g19
ag20
ag33
aag45
ag45
ag45
ag45
ag45
asbag1
(g2
g3
Ntp46
Rp47
(dp48
g7
S'Left-A-3'
p49
sg9
(lp50
(lp51
S'Left'
p52
ag20
aag51
ag51
asbag1
(g2
g3
Ntp53
Rp54
(dp55
g7
S'Left-B-2'
p56
sg9
(lp57
(lp58
g52
ag33
aag58
asba.