ccopy_reg
_reconstructor
p0
(cargparse
Namespace
p1
c__builtin__
object
p2
Ntp3
Rp4
(dp5
S'load'
p6
I00
sS'partial_reward'
p7
I01
sS'render'
p8
I01
sS'prevActionsSize'
p9
I1
sS'windowsize'
p10
I3
sS'player'
p11
S'cnn'
p12
sS'conv_model'
p13
I1
sS'maxGameIter'
p14
I3000
sS'regularization'
p15
F0.001
sS'isTrain'
p16
I01
sS'batchSize'
p17
I20
sS'maxCache'
p18
I1000
sS'death_penalty'
p19
I-100
sS'decay_rate'
p20
I1
sS'lr'
p21
F0.0001
sS'model_dir'
p22
S'model/20171213_021909'
p23
sS'batchPerFeedback'
p24
I11
sS'explorationProb'
p25
F0.5
sS'updateTargetInterval'
p26
I20
sS'optimizer'
p27
S'adam'
p28
sS'decay_step'
p29
I1000
sS'updateInterval'
p30
I10
sS'gradient_clip'
p31
I10
sS'tileWindowSize'
p32
I3
sS'ckpt'
p33
I0
sS'softmaxExploration'
p34
I00
sS'stepCounterMax'
p35
I6
sS'save_period'
p36
I2000
sb.