ccopy_reg
_reconstructor
p0
(cargparse
Namespace
p1
c__builtin__
object
p2
Ntp3
Rp4
(dp5
S'restore'
p6
I01
sS'render'
p7
I01
sS'explorationPercentile'
p8
F0.9
sS'prevActionsSize'
p9
I10
sS'player'
p10
S'feature'
p11
sS'ckpt'
p12
I0
sS'maxGameIter'
p13
I100000
sS'regularization'
p14
F0.001
sS'explorationGrowthFactor'
p15
F100.0
sS'isTrain'
p16
I01
sS'batchSize'
p17
I100
sS'maxCache'
p18
I1000
sS'decay_rate'
p19
I1
sS'lr'
p20
F0.0001
sS'model_dir'
p21
S'model/20171209_134428'
p22
sS'batchPerFeedback'
p23
I200
sS'explorationProb'
p24
F0.5
sS'updateTargetInterval'
p25
I10
sS'optimizer'
p26
S'adam'
p27
sS'decay_step'
p28
I1000
sS'updateInterval'
p29
I100
sS'gradient_clip'
p30
I10
sS'tileWindowSize'
p31
I3
sS'windowsize'
p32
I3
sS'softmaxExploration'
p33
I00
sS'stepCounterMax'
p34
I3
sS'save_period'
p35
I2000
sb.